target datalayout = "e-m:e-p270:32:32-p271:32:32-p272:64:64-i64:64-i128:128-f80:128-n8:16:32:64-S128"
target triple = "x86_64-pc-linux-gnu"

%struct.Curl_easy = type { i32, i64, i64, ptr, %struct.Curl_llist_node, %struct.Curl_llist_node, i32, i32, %struct.Curl_message, %struct.easy_pollset, %struct.Names, ptr, ptr, ptr, ptr, %struct.SingleRequest, %struct.UserDefined, ptr, ptr, ptr, %struct.Progress, %struct.UrlState, ptr, %struct.PureInfo, %struct.curl_tlssessioninfo }
%struct.Curl_llist_node = type { ptr, ptr, ptr, ptr }
%struct.Curl_message = type { %struct.Curl_llist_node, %struct.CURLMsg }
%struct.CURLMsg = type { i32, ptr, %union.anon }
%union.anon = type { ptr }
%struct.easy_pollset = type { [5 x i32], i32, [5 x i8] }
%struct.Names = type { ptr, i32 }
%struct.SingleRequest = type <{ i64, i64, i64, i64, %struct.curltime, i32, i32, i32, i32, i64, i32, i32, i8, i8, [2 x i8], i32, ptr, ptr, %struct.bufq, i64, i64, ptr, ptr, %union.anon.0, ptr, i8, i32, [3 x i8] }>
%struct.curltime = type { i64, i32 }
%struct.bufq = type { ptr, ptr, ptr, ptr, i64, i64, i64, i32 }
%union.anon.0 = type { ptr }
%struct.UserDefined = type <{ ptr, ptr, ptr, ptr, ptr, ptr, i64, i64, i64, ptr, ptr, i64, ptr, ptr, ptr, ptr, ptr, ptr, ptr, ptr, ptr, ptr, ptr, ptr, ptr, ptr, ptr, ptr, ptr, ptr, ptr, ptr, ptr, ptr, ptr, i64, i64, i64, i64, i64, i64, i64, i64, i64, ptr, ptr, %struct.curl_mimepart, ptr, ptr, ptr, i64, %struct.ssl_config_data, %struct.ssl_config_data, ptr, i16, i8, i8, %struct.ssl_general_config, i32, i32, i32, [4 x i8], ptr, ptr, i64, i32, i8, i8, i8, i8, ptr, ptr, ptr, i32, [4 x i8], [74 x ptr], [8 x ptr], i32, i32, i32, [4 x i8], ptr, i32, [4 x i8], ptr, ptr, ptr, ptr, ptr, i32, i32, i32, i32, i32, i32, i32, i32, i64, ptr, ptr, i64, ptr, i64, ptr, ptr, ptr, ptr, i32, i16, i16, i16, i8, i8, i8, i8, i8, i8, i8, i8, i64, [6 x i8] }>
%struct.curl_mimepart = type { ptr, ptr, i32, i32, ptr, ptr, ptr, ptr, ptr, ptr, ptr, ptr, ptr, ptr, ptr, i64, %struct.mime_state, ptr, %struct.mime_encoder_state, i64 }
%struct.mime_state = type { i32, ptr, i64 }
%struct.mime_encoder_state = type { i64, i64, i64, [256 x i8] }
%struct.ssl_config_data = type { %struct.ssl_primary_config, i64, ptr, ptr, ptr, ptr, ptr, ptr, ptr, i16 }
%struct.ssl_primary_config = type { ptr, ptr, ptr, ptr, ptr, ptr, ptr, ptr, ptr, ptr, ptr, ptr, ptr, ptr, i8, i32, i8, i8 }
%struct.ssl_general_config = type { i32 }
%struct.Progress = type { i64, %struct.pgrs_dir, %struct.pgrs_dir, i64, i64, i32, i32, i64, i64, i64, i64, i64, i64, i64, i64, i64, %struct.curltime, %struct.curltime, %struct.curltime, %struct.curltime, %struct.curltime, [6 x i64], [6 x %struct.curltime], i32, i8 }
%struct.pgrs_dir = type { i64, i64, i64, %struct.pgrs_measure }
%struct.pgrs_measure = type { %struct.curltime, i64 }
%struct.UrlState = type { %struct.curltime, i64, i64, %struct.dynbuf, ptr, i64, ptr, i32, i32, i32, ptr, i32, i64, i32, ptr, %struct.digestdata, %struct.digestdata, %struct.auth, %struct.auth, %struct.Curl_async, ptr, i8, %struct.curltime, %struct.Curl_tree, %struct.Curl_llist, [15 x %struct.time_node], ptr, ptr, i64, i64, i64, i64, [32 x i8], i64, ptr, ptr, ptr, %struct.urlpieces, ptr, ptr, ptr, ptr, ptr, i64, %struct.dynbuf, %struct.Curl_llist, [2 x %struct.curl_header], ptr, i32, ptr, ptr, %struct.store_netrc, %struct.dynamically_allocated_data, i8, i8, i8, i8, i32 }
%struct.digestdata = type { ptr, ptr, ptr, ptr, ptr, ptr, i32, i8, i8 }
%struct.auth = type { i64, i64, i64, i8 }
%struct.Curl_async = type { ptr, ptr, ptr, ptr, i32, i32, i8 }
%struct.Curl_tree = type { ptr, ptr, ptr, ptr, %struct.curltime, ptr }
%struct.time_node = type { %struct.Curl_llist_node, %struct.curltime, i32 }
%struct.urlpieces = type { ptr, ptr, ptr, ptr, ptr, ptr, ptr, ptr }
%struct.dynbuf = type { ptr, i64, i64, i64 }
%struct.Curl_llist = type { ptr, ptr, ptr, i64 }
%struct.curl_header = type { ptr, ptr, i64, i64, i32, ptr }
%struct.store_netrc = type { %struct.dynbuf, ptr, i8 }
%struct.dynamically_allocated_data = type { ptr, ptr, ptr, ptr, ptr, ptr, ptr, ptr, ptr, ptr, ptr, ptr, ptr, ptr }
%struct.PureInfo = type { i32, i32, i32, i64, i64, i64, i64, i64, i64, i64, ptr, ptr, i64, i32, %struct.ip_quadruple, i32, ptr, i32, %struct.curl_certinfo, i32, i8 }
%struct.ip_quadruple = type { [46 x i8], [46 x i8], i32, i32 }
%struct.curl_certinfo = type { i32, ptr }
%struct.curl_tlssessioninfo = type { i32, ptr }
%struct.connectdata = type { %struct.Curl_llist_node, ptr, ptr, i64, ptr, i64, ptr, ptr, %struct.hostname, ptr, ptr, %struct.hostname, %struct.proxy_info, %struct.proxy_info, %struct.ip_quadruple, %struct.ip_quadruple, ptr, ptr, ptr, ptr, ptr, %struct.curltime, %struct.curltime, %struct.curltime, [2 x i32], [2 x ptr], [2 x ptr], [2 x ptr], %struct.anon, %struct.easy_pollset, %struct.ssl_primary_config, %struct.ssl_primary_config, %struct.ConnectBits, ptr, ptr, %struct.curltime, i32, i32, %struct.Curl_llist, i32, i32, %struct.ntlmdata, %struct.ntlmdata, %union.anon.1, ptr, ptr, i16, i32, i32, i32, i32, i16, i16, i8, i8, i8, i8, i8, i8, i8 }
%struct.hostname = type { ptr, ptr, ptr, ptr }
%struct.proxy_info = type { %struct.hostname, i32, i8, ptr, ptr }
%struct.anon = type { [2 x %struct.curltime], i32 }
%struct.ConnectBits = type { i64 }
%struct.ntlmdata = type { i32, [8 x i8], i32, ptr }
%union.anon.1 = type { %struct.ftp_conn }
%struct.ftp_conn = type { %struct.pingpong, ptr, ptr, ptr, ptr, ptr, ptr, ptr, i8, i64, ptr, i64, i32, i32, i32, i32, i32, i16, i8, i8, i8, i8, i8 }
%struct.pingpong = type { i64, i8, ptr, i64, i64, %struct.curltime, i64, %struct.dynbuf, %struct.dynbuf, i64, i64, ptr, ptr }
%struct.rtsp_conn = type { %struct.dynbuf, i32, i64, i32, i8 }

; Function Attrs: nounwind uwtable
define internal i32 @rtsp_rtp_write_resp(ptr noundef %0, ptr noundef %1, i64 noundef %2, i1 noundef zeroext %3) #0 {
  %5 = alloca ptr, align 8
  %6 = alloca ptr, align 8
  %7 = alloca i64, align 8
  %8 = alloca i8, align 1
  %9 = alloca ptr, align 8
  %10 = alloca i32, align 4
  %11 = alloca i64, align 8
  store ptr %0, ptr %5, align 8, !tbaa !3
  store ptr %1, ptr %6, align 8, !tbaa !86
  store i64 %2, ptr %7, align 8, !tbaa !119
  %12 = zext i1 %3 to i8
  store i8 %12, ptr %8, align 1, !tbaa !87
  call void @llvm.lifetime.start.p0(i64 8, ptr %9) #5
  %13 = load ptr, ptr %5, align 8, !tbaa !3
  %14 = getelementptr inbounds nuw %struct.Curl_easy, ptr %13, i32 0, i32 3
  %15 = load ptr, ptr %14, align 8, !tbaa !16
  %16 = getelementptr inbounds nuw %struct.connectdata, ptr %15, i32 0, i32 43
  store ptr %16, ptr %9, align 8, !tbaa !131
  call void @llvm.lifetime.start.p0(i64 4, ptr %10) #5
  store i32 0, ptr %10, align 4, !tbaa !84
  call void @llvm.lifetime.start.p0(i64 8, ptr %11) #5
  store i64 0, ptr %11, align 8, !tbaa !119
  %17 = load ptr, ptr %5, align 8, !tbaa !3
  %18 = getelementptr inbounds nuw %struct.Curl_easy, ptr %17, i32 0, i32 15
  %19 = getelementptr inbounds nuw %struct.SingleRequest, ptr %18, i32 0, i32 26
  %20 = load i32, ptr %19, align 1
  %21 = and i32 %20, 1
  %22 = icmp ne i32 %21, 0
  br i1 %22, label %29, label %23

23:                                               ; preds = %4
  %24 = load ptr, ptr %9, align 8, !tbaa !131
  %25 = getelementptr inbounds nuw %struct.rtsp_conn, ptr %24, i32 0, i32 4
  %26 = load i8, ptr %25, align 4
  %27 = and i8 %26, -2
  %28 = or i8 %27, 0
  store i8 %28, ptr %25, align 4
  br label %29

29:                                               ; preds = %23, %4
  %30 = load i64, ptr %7, align 8, !tbaa !119
  %31 = icmp ne i64 %30, 0
  br i1 %31, label %33, label %32

32:                                               ; preds = %29
  br label %184

33:                                               ; preds = %29
  br label %34

34:                                               ; preds = %33
  br label %35

35:                                               ; preds = %34
  br label %36

36:                                               ; preds = %35
  %37 = load ptr, ptr %9, align 8, !tbaa !131
  %38 = getelementptr inbounds nuw %struct.rtsp_conn, ptr %37, i32 0, i32 4
  %39 = load i8, ptr %38, align 4
  %40 = and i8 %39, 1
  %41 = zext i8 %40 to i32
  %42 = icmp ne i32 %41, 0
  br i1 %42, label %72, label %43

43:                                               ; preds = %36
  %44 = load ptr, ptr %5, align 8, !tbaa !3
  %45 = load ptr, ptr %6, align 8, !tbaa !86
  %46 = load i64, ptr %7, align 8, !tbaa !119
  %47 = call i32 @rtsp_filter_rtp(ptr noundef %44, ptr noundef %45, i64 noundef %46, ptr noundef %11)
  store i32 %47, ptr %10, align 4, !tbaa !84
  %48 = load i32, ptr %10, align 4, !tbaa !84
  %49 = icmp ne i32 %48, 0
  br i1 %49, label %50, label %51

50:                                               ; preds = %43
  br label %184

51:                                               ; preds = %43
  %52 = load i64, ptr %11, align 8, !tbaa !119
  %53 = load ptr, ptr %6, align 8, !tbaa !86
  %54 = getelementptr inbounds nuw i8, ptr %53, i64 %52
  store ptr %54, ptr %6, align 8, !tbaa !86
  %55 = load i64, ptr %11, align 8, !tbaa !119
  %56 = load i64, ptr %7, align 8, !tbaa !119
  %57 = sub i64 %56, %55
  store i64 %57, ptr %7, align 8, !tbaa !119
  %58 = load i64, ptr %7, align 8, !tbaa !119
  %59 = icmp ne i64 %58, 0
  br i1 %59, label %60, label %71

60:                                               ; preds = %51
  %61 = load ptr, ptr %5, align 8, !tbaa !3
  %62 = getelementptr inbounds nuw %struct.Curl_easy, ptr %61, i32 0, i32 15
  %63 = getelementptr inbounds nuw %struct.SingleRequest, ptr %62, i32 0, i32 26
  %64 = load i32, ptr %63, align 1
  %65 = and i32 %64, 1
  %66 = icmp ne i32 %65, 0
  br i1 %66, label %71, label %67

67:                                               ; preds = %60
  br label %68

68:                                               ; preds = %67
  br label %69

69:                                               ; preds = %68
  br label %70

70:                                               ; preds = %69
  br label %71

71:                                               ; preds = %70, %60, %51
  br label %72

72:                                               ; preds = %71, %36
  %73 = load ptr, ptr %5, align 8, !tbaa !3
  %74 = getelementptr inbounds nuw %struct.Curl_easy, ptr %73, i32 0, i32 15
  %75 = getelementptr inbounds nuw %struct.SingleRequest, ptr %74, i32 0, i32 26
  %76 = load i32, ptr %75, align 1
  %77 = and i32 %76, 1
  %78 = icmp ne i32 %77, 0
  br i1 %78, label %79, label %150

79:                                               ; preds = %72
  %80 = load i64, ptr %7, align 8, !tbaa !119
  %81 = icmp ne i64 %80, 0
  br i1 %81, label %82, label %150

82:                                               ; preds = %79
  %83 = load ptr, ptr %9, align 8, !tbaa !131
  %84 = getelementptr inbounds nuw %struct.rtsp_conn, ptr %83, i32 0, i32 4
  %85 = load i8, ptr %84, align 4
  %86 = and i8 %85, -2
  %87 = or i8 %86, 1
  store i8 %87, ptr %84, align 4
  %88 = load ptr, ptr %5, align 8, !tbaa !3
  %89 = load ptr, ptr %6, align 8, !tbaa !86
  %90 = load i64, ptr %7, align 8, !tbaa !119
  %91 = call i32 @Curl_http_write_resp_hds(ptr noundef %88, ptr noundef %89, i64 noundef %90, ptr noundef %11)
  store i32 %91, ptr %10, align 4, !tbaa !84
  %92 = load i32, ptr %10, align 4, !tbaa !84
  %93 = icmp ne i32 %92, 0
  br i1 %93, label %94, label %95

94:                                               ; preds = %82
  br label %184

95:                                               ; preds = %82
  %96 = load i64, ptr %11, align 8, !tbaa !119
  %97 = load ptr, ptr %6, align 8, !tbaa !86
  %98 = getelementptr inbounds nuw i8, ptr %97, i64 %96
  store ptr %98, ptr %6, align 8, !tbaa !86
  %99 = load i64, ptr %11, align 8, !tbaa !119
  %100 = load i64, ptr %7, align 8, !tbaa !119
  %101 = sub i64 %100, %99
  store i64 %101, ptr %7, align 8, !tbaa !119
  %102 = load ptr, ptr %5, align 8, !tbaa !3
  %103 = getelementptr inbounds nuw %struct.Curl_easy, ptr %102, i32 0, i32 15
  %104 = getelementptr inbounds nuw %struct.SingleRequest, ptr %103, i32 0, i32 26
  %105 = load i32, ptr %104, align 1
  %106 = and i32 %105, 1
  %107 = icmp ne i32 %106, 0
  br i1 %107, label %114, label %108

108:                                              ; preds = %95
  %109 = load ptr, ptr %9, align 8, !tbaa !131
  %110 = getelementptr inbounds nuw %struct.rtsp_conn, ptr %109, i32 0, i32 4
  %111 = load i8, ptr %110, align 4
  %112 = and i8 %111, -2
  %113 = or i8 %112, 0
  store i8 %113, ptr %110, align 4
  br label %114

114:                                              ; preds = %108, %95
  %115 = load ptr, ptr %9, align 8, !tbaa !131
  %116 = getelementptr inbounds nuw %struct.rtsp_conn, ptr %115, i32 0, i32 4
  %117 = load i8, ptr %116, align 4
  %118 = and i8 %117, 1
  %119 = zext i8 %118 to i32
  %120 = icmp ne i32 %119, 0
  br i1 %120, label %149, label %121

121:                                              ; preds = %114
  %122 = load ptr, ptr %5, align 8, !tbaa !3
  %123 = getelementptr inbounds nuw %struct.Curl_easy, ptr %122, i32 0, i32 15
  %124 = getelementptr inbounds nuw %struct.SingleRequest, ptr %123, i32 0, i32 0
  %125 = load i64, ptr %124, align 8, !tbaa !133
  %126 = icmp sle i64 %125, -1
  br i1 %126, label %127, label %137

127:                                              ; preds = %121
  %128 = load ptr, ptr %5, align 8, !tbaa !3
  %129 = getelementptr inbounds nuw %struct.Curl_easy, ptr %128, i32 0, i32 15
  %130 = getelementptr inbounds nuw %struct.SingleRequest, ptr %129, i32 0, i32 0
  store i64 0, ptr %130, align 8, !tbaa !133
  %131 = load ptr, ptr %5, align 8, !tbaa !3
  %132 = getelementptr inbounds nuw %struct.Curl_easy, ptr %131, i32 0, i32 15
  %133 = getelementptr inbounds nuw %struct.SingleRequest, ptr %132, i32 0, i32 26
  %134 = load i32, ptr %133, align 1
  %135 = and i32 %134, -9
  %136 = or i32 %135, 8
  store i32 %136, ptr %133, align 1
  br label %137

137:                                              ; preds = %127, %121
  %138 = load ptr, ptr %5, align 8, !tbaa !3
  %139 = load ptr, ptr %6, align 8, !tbaa !86
  %140 = load i64, ptr %7, align 8, !tbaa !119
  %141 = call i32 @rtsp_filter_rtp(ptr noundef %138, ptr noundef %139, i64 noundef %140, ptr noundef %11)
  store i32 %141, ptr %10, align 4, !tbaa !84
  %142 = load i32, ptr %10, align 4, !tbaa !84
  %143 = icmp ne i32 %142, 0
  br i1 %143, label %144, label %145

144:                                              ; preds = %137
  br label %184

145:                                              ; preds = %137
  %146 = load i64, ptr %11, align 8, !tbaa !119
  %147 = load i64, ptr %7, align 8, !tbaa !119
  %148 = sub i64 %147, %146
  store i64 %148, ptr %7, align 8, !tbaa !119
  br label %149

149:                                              ; preds = %145, %114
  br label %150

150:                                              ; preds = %149, %79, %72
  %151 = load ptr, ptr %9, align 8, !tbaa !131
  %152 = getelementptr inbounds nuw %struct.rtsp_conn, ptr %151, i32 0, i32 3
  %153 = load i32, ptr %152, align 8, !tbaa !134
  %154 = icmp ne i32 %153, 0
  br i1 %154, label %155, label %162

155:                                              ; preds = %150
  %156 = load ptr, ptr %5, align 8, !tbaa !3
  %157 = getelementptr inbounds nuw %struct.Curl_easy, ptr %156, i32 0, i32 15
  %158 = getelementptr inbounds nuw %struct.SingleRequest, ptr %157, i32 0, i32 26
  %159 = load i32, ptr %158, align 1
  %160 = and i32 %159, -3
  %161 = or i32 %160, 0
  store i32 %161, ptr %158, align 1
  br label %162

162:                                              ; preds = %155, %150
  br label %163

163:                                              ; preds = %162
  br label %164

164:                                              ; preds = %163
  br label %165

165:                                              ; preds = %164
  %166 = load i32, ptr %10, align 4, !tbaa !84
  %167 = icmp ne i32 %166, 0
  br i1 %167, label %183, label %168

168:                                              ; preds = %165
  %169 = load i8, ptr %8, align 1, !tbaa !87, !range !123, !noundef !124
  %170 = trunc i8 %169 to i1
  br i1 %170, label %174, label %171

171:                                              ; preds = %168
  %172 = load i64, ptr %7, align 8, !tbaa !119
  %173 = icmp ne i64 %172, 0
  br i1 %173, label %174, label %183

174:                                              ; preds = %171, %168
  %175 = load ptr, ptr %5, align 8, !tbaa !3
  %176 = load i8, ptr %8, align 1, !tbaa !87, !range !123, !noundef !124
  %177 = trunc i8 %176 to i1
  %178 = select i1 %177, i32 128, i32 0
  %179 = or i32 1, %178
  %180 = load ptr, ptr %6, align 8, !tbaa !86
  %181 = load i64, ptr %7, align 8, !tbaa !119
  %182 = call i32 @Curl_client_write(ptr noundef %175, i32 noundef %179, ptr noundef %180, i64 noundef %181)
  store i32 %182, ptr %10, align 4, !tbaa !84
  br label %183

183:                                              ; preds = %174, %171, %165
  br label %184

184:                                              ; preds = %183, %144, %94, %50, %32
  %185 = load ptr, ptr %5, align 8, !tbaa !3
  %186 = getelementptr inbounds nuw %struct.Curl_easy, ptr %185, i32 0, i32 16
  %187 = getelementptr inbounds nuw %struct.UserDefined, ptr %186, i32 0, i32 82
  %188 = load i32, ptr %187, align 8, !tbaa !85
  %189 = icmp eq i32 %188, 11
  br i1 %189, label %190, label %202

190:                                              ; preds = %184
  %191 = load ptr, ptr %9, align 8, !tbaa !131
  %192 = getelementptr inbounds nuw %struct.rtsp_conn, ptr %191, i32 0, i32 3
  %193 = load i32, ptr %192, align 8, !tbaa !134
  %194 = icmp eq i32 %193, 0
  br i1 %194, label %195, label %202

195:                                              ; preds = %190
  %196 = load ptr, ptr %5, align 8, !tbaa !3
  %197 = getelementptr inbounds nuw %struct.Curl_easy, ptr %196, i32 0, i32 15
  %198 = getelementptr inbounds nuw %struct.SingleRequest, ptr %197, i32 0, i32 26
  %199 = load i32, ptr %198, align 1
  %200 = and i32 %199, -9
  %201 = or i32 %200, 8
  store i32 %201, ptr %198, align 1
  br label %202

202:                                              ; preds = %195, %190, %184
  %203 = load i32, ptr %10, align 4, !tbaa !84
  call void @llvm.lifetime.end.p0(i64 8, ptr %11) #5
  call void @llvm.lifetime.end.p0(i64 4, ptr %10) #5
  call void @llvm.lifetime.end.p0(i64 8, ptr %9) #5
  ret i32 %203
}