; Function Attrs: nounwind uwtable
define internal i32 @rtsp_rtp_write_resp(ptr noundef %0, ptr noundef %1, i64 noundef %2, i1 noundef zeroext %3) #0 {
  %5 = alloca i64, align 8
  %6 = getelementptr inbounds nuw i8, ptr %0, i64 24
  %7 = load ptr, ptr %6, align 8, !tbaa !8
  call void @llvm.lifetime.start.p0(i64 8, ptr nonnull %5) #7
  store i64 0, ptr %5, align 8, !tbaa !119
  %8 = getelementptr inbounds nuw i8, ptr %0, i64 240
  %9 = getelementptr inbounds nuw i8, ptr %0, i64 457
  %10 = load i32, ptr %9, align 1
  %11 = and i32 %10, 1
  %.not = icmp eq i32 %11, 0
  br i1 %.not, label %12, label %16

12:                                               ; preds = %4
  %13 = getelementptr inbounds nuw i8, ptr %7, i64 1140
  %14 = load i8, ptr %13, align 4
  %15 = and i8 %14, -2
  store i8 %15, ptr %13, align 4
  br label %16

16:                                               ; preds = %12, %4
  %.not57 = icmp eq i64 %2, 0
  br i1 %.not57, label %69, label %17

17:                                               ; preds = %16
  %18 = getelementptr inbounds nuw i8, ptr %7, i64 1140
  %19 = load i8, ptr %18, align 4
  %20 = and i8 %19, 1
  %.not58 = icmp eq i8 %20, 0
  br i1 %.not58, label %21, label %27

21:                                               ; preds = %17
  %22 = call fastcc i32 @rtsp_filter_rtp(ptr noundef nonnull %0, ptr noundef %1, i64 noundef %2, ptr noundef %5)
  %.not59 = icmp eq i32 %22, 0
  br i1 %.not59, label %23, label %69

23:                                               ; preds = %21
  %24 = load i64, ptr %5, align 8, !tbaa !119
  %25 = getelementptr inbounds nuw i8, ptr %1, i64 %24
  %26 = sub i64 %2, %24
  br label %27

27:                                               ; preds = %23, %17
  %.048 = phi i64 [ %2, %17 ], [ %26, %23 ]
  %.046 = phi ptr [ %1, %17 ], [ %25, %23 ]
  %28 = load i32, ptr %9, align 1
  %29 = and i32 %28, 1
  %30 = icmp ne i32 %29, 0
  %31 = icmp ne i64 %.048, 0
  %or.cond = select i1 %30, i1 %31, i1 false
  br i1 %or.cond, label %32, label %58

32:                                               ; preds = %27
  %33 = load i8, ptr %18, align 4
  %34 = or i8 %33, 1
  store i8 %34, ptr %18, align 4
  %35 = call i32 @Curl_http_write_resp_hds(ptr noundef nonnull %0, ptr noundef %.046, i64 noundef %.048, ptr noundef nonnull %5) #7
  %.not60 = icmp eq i32 %35, 0
  br i1 %.not60, label %36, label %69

36:                                               ; preds = %32
  %37 = load i64, ptr %5, align 8, !tbaa !119
  %38 = getelementptr inbounds nuw i8, ptr %.046, i64 %37
  %39 = sub i64 %.048, %37
  %40 = load i32, ptr %9, align 1
  %41 = and i32 %40, 1
  %.not61 = icmp eq i32 %41, 0
  %.pre = load i8, ptr %18, align 4
  br i1 %.not61, label %42, label %44

42:                                               ; preds = %36
  %43 = and i8 %.pre, -2
  store i8 %43, ptr %18, align 4
  br label %44

44:                                               ; preds = %42, %36
  %45 = phi i8 [ %43, %42 ], [ %.pre, %36 ]
  %46 = and i8 %45, 1
  %.not62 = icmp eq i8 %46, 0
  br i1 %.not62, label %47, label %58

47:                                               ; preds = %44
  %48 = load i64, ptr %8, align 8, !tbaa !120
  %49 = icmp slt i64 %48, 0
  br i1 %49, label %50, label %53

50:                                               ; preds = %47
  store i64 0, ptr %8, align 8, !tbaa !120
  %51 = load i32, ptr %9, align 1
  %52 = or i32 %51, 8
  store i32 %52, ptr %9, align 1
  br label %53

53:                                               ; preds = %50, %47
  %54 = call fastcc i32 @rtsp_filter_rtp(ptr noundef nonnull %0, ptr noundef %38, i64 noundef %39, ptr noundef %5)
  %.not63 = icmp eq i32 %54, 0
  br i1 %.not63, label %55, label %69

55:                                               ; preds = %53
  %56 = load i64, ptr %5, align 8, !tbaa !119
  %57 = sub i64 %39, %56
  br label %58

58:                                               ; preds = %44, %55, %27
  %.149 = phi i64 [ %39, %44 ], [ %57, %55 ], [ %.048, %27 ]
  %.147 = phi ptr [ %38, %44 ], [ %38, %55 ], [ %.046, %27 ]
  %59 = getelementptr inbounds nuw i8, ptr %7, i64 1136
  %60 = load i32, ptr %59, align 8, !tbaa !121
  %.not64 = icmp eq i32 %60, 0
  br i1 %.not64, label %64, label %61

61:                                               ; preds = %58
  %62 = load i32, ptr %9, align 1
  %63 = and i32 %62, -3
  store i32 %63, ptr %9, align 1
  br label %64

64:                                               ; preds = %61, %58
  %65 = icmp ne i64 %.149, 0
  %or.cond3 = select i1 %3, i1 true, i1 %65
  br i1 %or.cond3, label %66, label %69

66:                                               ; preds = %64
  %67 = select i1 %3, i32 129, i32 1
  %68 = call i32 @Curl_client_write(ptr noundef nonnull %0, i32 noundef %67, ptr noundef %.147, i64 noundef %.149) #7
  br label %69

69:                                               ; preds = %66, %64, %53, %32, %21, %16
  %.0 = phi i32 [ %35, %32 ], [ %68, %66 ], [ 0, %64 ], [ %54, %53 ], [ %22, %21 ], [ 0, %16 ]
  %70 = getelementptr inbounds nuw i8, ptr %0, i64 2480
  %71 = load i32, ptr %70, align 8, !tbaa !77
  %72 = icmp eq i32 %71, 11
  br i1 %72, label %73, label %80

73:                                               ; preds = %69
  %74 = getelementptr inbounds nuw i8, ptr %7, i64 1136
  %75 = load i32, ptr %74, align 8, !tbaa !121
  %76 = icmp eq i32 %75, 0
  br i1 %76, label %77, label %80

77:                                               ; preds = %73
  %78 = load i32, ptr %9, align 1
  %79 = or i32 %78, 8
  store i32 %79, ptr %9, align 1
  br label %80

80:                                               ; preds = %77, %73, %69
  call void @llvm.lifetime.end.p0(i64 8, ptr nonnull %5) #7
  ret i32 %.0
}